; Function Attrs: mustprogress uwtable
define void @_ZNK10open_spiel13markov_soccer17MarkovSoccerState8ToStringB5cxx11Ev(ptr dead_on_unwind noalias writable sret(%"class.std::__cxx11::basic_string") align 8 %0, ptr noundef nonnull align 8 dereferenceable(144) %1) unnamed_addr #3 align 2 personality ptr @__gxx_personality_v0 {
  %3 = alloca %"class.std::allocator", align 1
  %4 = alloca %"class.absl::debian2::AlphaNum", align 8
  %5 = alloca %"class.absl::debian2::AlphaNum", align 8
  call void @_ZNSaIcEC1Ev(ptr noundef nonnull align 1 dereferenceable(1) %3) #26
  %6 = invoke noundef ptr @_ZNSt7__cxx1112basic_stringIcSt11char_traitsIcESaIcEE13_M_local_dataEv(ptr noundef nonnull align 8 dereferenceable(32) %0)
          to label %.noexc unwind label %33

.noexc:                                           ; preds = %2
  invoke void @_ZNSt7__cxx1112basic_stringIcSt11char_traitsIcESaIcEE12_Alloc_hiderC1EPcRKS3_(ptr noundef nonnull align 8 dereferenceable(8) %0, ptr noundef %6, ptr noundef nonnull align 1 dereferenceable(1) %3)
          to label %.noexc13 unwind label %33

.noexc13:                                         ; preds = %.noexc
  invoke void @_ZNSt7__cxx1112basic_stringIcSt11char_traitsIcESaIcEE12_M_constructIPKcEEvT_S8_St20forward_iterator_tag(ptr noundef nonnull align 8 dereferenceable(32) %0, ptr noundef nonnull @.str.13, ptr noundef nonnull @.str.13)
          to label %_ZNSt7__cxx1112basic_stringIcSt11char_traitsIcESaIcEEC2IS3_EEPKcRKS3_.exit unwind label %7

7:                                                ; preds = %.noexc13
  %8 = landingpad { ptr, i32 }
          cleanup
  call void @_ZNSaIcED2Ev(ptr noundef nonnull align 1 dereferenceable(1) %0) #26
  br label %.body

_ZNSt7__cxx1112basic_stringIcSt11char_traitsIcESaIcEEC2IS3_EEPKcRKS3_.exit: ; preds = %.noexc13
  call void @_ZNSaIcED1Ev(ptr noundef nonnull align 1 dereferenceable(1) %3) #26
  %9 = getelementptr inbounds nuw i8, ptr %1, i64 64
  %10 = load ptr, ptr %9, align 8
  %11 = load i32, ptr %10, align 8
  %12 = icmp sgt i32 %11, 0
  br i1 %12, label %.preheader.lr.ph, label %._crit_edge20

.preheader.lr.ph:                                 ; preds = %_ZNSt7__cxx1112basic_stringIcSt11char_traitsIcESaIcEEC2IS3_EEPKcRKS3_.exit
  %13 = getelementptr inbounds nuw i8, ptr %1, i64 120
  %14 = getelementptr inbounds nuw i8, ptr %4, i64 8
  br label %.preheader

.preheader:                                       ; preds = %.preheader.lr.ph, %35
  %15 = phi ptr [ %10, %.preheader.lr.ph ], [ %37, %35 ]
  %.0919 = phi i32 [ 0, %.preheader.lr.ph ], [ %36, %35 ]
  %16 = getelementptr inbounds nuw i8, ptr %15, i64 4
  %17 = load i32, ptr %16, align 4
  %18 = icmp sgt i32 %17, 0
  br i1 %18, label %.lr.ph, label %._crit_edge

.lr.ph:                                           ; preds = %.preheader, %27
  %19 = phi i32 [ %31, %27 ], [ %17, %.preheader ]
  %.018 = phi i32 [ %28, %27 ], [ 0, %.preheader ]
  %20 = mul nsw i32 %19, %.0919
  %21 = add nsw i32 %20, %.018
  %22 = sext i32 %21 to i64
  %23 = load ptr, ptr %13, align 8
  %24 = getelementptr inbounds i8, ptr %23, i64 %22
  %25 = load i8, ptr %24, align 1
  %26 = invoke noundef nonnull align 8 dereferenceable(32) ptr @_ZNSt7__cxx1112basic_stringIcSt11char_traitsIcESaIcEEpLEc(ptr noundef nonnull align 8 dereferenceable(32) %0, i8 noundef signext %25)
          to label %27 unwind label %.loopexit

27:                                               ; preds = %.lr.ph
  %28 = add nuw nsw i32 %.018, 1
  %29 = load ptr, ptr %9, align 8
  %30 = getelementptr inbounds nuw i8, ptr %29, i64 4
  %31 = load i32, ptr %30, align 4
  %32 = icmp slt i32 %28, %31
  br i1 %32, label %.lr.ph, label %._crit_edge, !llvm.loop !11

33:                                               ; preds = %.noexc, %2
  %34 = landingpad { ptr, i32 }
          cleanup
  br label %.body

.body:                                            ; preds = %7, %33
  %eh.lpad-body = phi { ptr, i32 } [ %34, %33 ], [ %8, %7 ]
  call void @_ZNSaIcED1Ev(ptr noundef nonnull align 1 dereferenceable(1) %3) #26
  br label %48

.loopexit:                                        ; preds = %.lr.ph
  %lpad.loopexit = landingpad { ptr, i32 }
          cleanup
  br label %.loopexit.split-lp

.loopexit.split-lp.loopexit:                      ; preds = %._crit_edge
  %lpad.loopexit15 = landingpad { ptr, i32 }
          cleanup
  br label %.loopexit.split-lp

.loopexit.split-lp.loopexit.split-lp:             ; preds = %45, %._crit_edge20
  %lpad.loopexit.split-lp16 = landingpad { ptr, i32 }
          cleanup
  br label %.loopexit.split-lp

.loopexit.split-lp:                               ; preds = %.loopexit.split-lp.loopexit, %.loopexit.split-lp.loopexit.split-lp, %.loopexit
  %lpad.phi = phi { ptr, i32 } [ %lpad.loopexit, %.loopexit ], [ %lpad.loopexit15, %.loopexit.split-lp.loopexit ], [ %lpad.loopexit.split-lp16, %.loopexit.split-lp.loopexit.split-lp ]
  call void @_ZNSt7__cxx1112basic_stringIcSt11char_traitsIcESaIcEED1Ev(ptr noundef nonnull align 8 dereferenceable(32) %0) #26
  br label %48

._crit_edge:                                      ; preds = %27, %.preheader
  store ptr @.str.37, ptr %4, align 8
  store i64 1, ptr %14, align 8
  invoke void @_ZN4absl7debian29StrAppendEPNSt7__cxx1112basic_stringIcSt11char_traitsIcESaIcEEERKNS0_8AlphaNumE(ptr noundef nonnull %0, ptr noundef nonnull align 8 dereferenceable(48) %4)
          to label %35 unwind label %.loopexit.split-lp.loopexit

35:                                               ; preds = %._crit_edge
  %36 = add nuw nsw i32 %.0919, 1
  %37 = load ptr, ptr %9, align 8
  %38 = load i32, ptr %37, align 8
  %39 = icmp slt i32 %36, %38
  br i1 %39, label %.preheader, label %._crit_edge20, !llvm.loop !12

._crit_edge20:                                    ; preds = %35, %_ZNSt7__cxx1112basic_stringIcSt11char_traitsIcESaIcEEC2IS3_EEPKcRKS3_.exit
  %40 = load ptr, ptr %1, align 8
  %41 = getelementptr inbounds i8, ptr %40, i64 128
  %42 = load ptr, ptr %41, align 8
  %43 = invoke noundef zeroext i1 %42(ptr noundef nonnull align 8 dereferenceable(60) %1)
          to label %44 unwind label %.loopexit.split-lp.loopexit.split-lp

44:                                               ; preds = %._crit_edge20
  br i1 %43, label %45, label %47

45:                                               ; preds = %44
  store ptr @.str.38, ptr %5, align 8
  %46 = getelementptr inbounds nuw i8, ptr %5, i64 8
  store i64 11, ptr %46, align 8
  invoke void @_ZN4absl7debian29StrAppendEPNSt7__cxx1112basic_stringIcSt11char_traitsIcESaIcEEERKNS0_8AlphaNumE(ptr noundef nonnull %0, ptr noundef nonnull align 8 dereferenceable(48) %5)
          to label %47 unwind label %.loopexit.split-lp.loopexit.split-lp

47:                                               ; preds = %44, %45
  ret void

48:                                               ; preds = %.loopexit.split-lp, %.body
  %.pn = phi { ptr, i32 } [ %lpad.phi, %.loopexit.split-lp ], [ %eh.lpad-body, %.body ]
  resume { ptr, i32 } %.pn
}